; Function Attrs: nofree norecurse nosync nounwind memory(argmem: readwrite) uwtable
define internal void @yuv2p012l1_LE_c(ptr noundef readonly captures(none) %0, ptr noundef writeonly captures(none) %1, i32 noundef %2, ptr readnone captures(none) %3, i32 %4) #2 {
  %6 = icmp sgt i32 %2, 0
  br i1 %6, label %.lr.ph.i, label %yuv2p01xl1_c.exit

.lr.ph.i:                                         ; preds = %5
  %wide.trip.count29.i = zext nneg i32 %2 to i64
  br label %.lr.ph.split.us.i

.lr.ph.split.us.i:                                ; preds = %.lr.ph.split.us.i, %.lr.ph.i
  %indvars.iv26.i = phi i64 [ %indvars.iv.next27.i, %.lr.ph.split.us.i ], [ 0, %.lr.ph.i ]
  %7 = getelementptr inbounds nuw i16, ptr %0, i64 %indvars.iv26.i
  %8 = load i16, ptr %7, align 2, !tbaa !39
  %9 = sext i16 %8 to i32
  %10 = add nsw i32 %9, 4
  %11 = ashr i32 %10, 3
  %12 = tail call i32 @llvm.smax.i32(i32 %11, i32 0)
  %13 = tail call i32 @llvm.umin.i32(i32 %12, i32 4095)
  %.0.i22.us.i.tr = trunc nuw nsw i32 %13 to i16
  %14 = shl nuw i16 %.0.i22.us.i.tr, 4
  %15 = getelementptr inbounds nuw i16, ptr %1, i64 %indvars.iv26.i
  store i16 %14, ptr %15, align 1, !tbaa !41
  %indvars.iv.next27.i = add nuw nsw i64 %indvars.iv26.i, 1
  %exitcond30.not.i = icmp eq i64 %indvars.iv.next27.i, %wide.trip.count29.i
  br i1 %exitcond30.not.i, label %yuv2p01xl1_c.exit, label %.lr.ph.split.us.i, !llvm.loop !42

yuv2p01xl1_c.exit:                                ; preds = %.lr.ph.split.us.i, %5
  ret void
}